target datalayout = "e-m:e-p270:32:32-p271:32:32-p272:64:64-i64:64-i128:128-f80:128-n8:16:32:64-S128"
target triple = "x86_64-unknown-linux-gnu"

%"class.icu_75::NFSubstitution" = type { %"class.icu_75::UObject", i32, ptr, ptr }
%"class.icu_75::UObject" = type { ptr }
%"class.icu_75::UnicodeString" = type { %"class.icu_75::Replaceable", %"union.icu_75::UnicodeString::StackBufferOrFields" }
%"class.icu_75::Replaceable" = type { %"class.icu_75::UObject" }
%"union.icu_75::UnicodeString::StackBufferOrFields" = type { %struct.anon.0, [32 x i8] }
%struct.anon.0 = type { i16, i32, i32, ptr }
%"class.icu_75::NFRuleSet" = type <{ [8 x i8], %"class.icu_75::UnicodeString", %"class.icu_75::NFRuleList", [6 x ptr], ptr, %"class.icu_75::NFRuleList", i8, i8, i8, [5 x i8] }>
%"class.icu_75::NFRuleList" = type { ptr, i32, i32 }
%"class.icu_75::ParsePosition" = type { %"class.icu_75::UObject", i32, i32 }

; Function Attrs: mustprogress nounwind uwtable
define internal noundef signext i8 @_ZL9U_SUCCESS10UErrorCode(i32 noundef %code) #0 {
entry:
  %code.addr = alloca i32, align 4
  store i32 %code, ptr %code.addr, align 4
  %0 = load i32, ptr %code.addr, align 4
  %cmp = icmp sle i32 %0, 0
  %conv = zext i1 %cmp to i8
  ret i8 %conv
}

; Function Attrs: mustprogress nounwind uwtable
define linkonce_odr noundef i32 @_ZNK6icu_7513ParsePosition8getIndexEv(ptr noundef nonnull align 8 dereferenceable(16) %this) #0 comdat align 2 {
entry:
  %this.addr = alloca ptr, align 8
  store ptr %this, ptr %this.addr, align 8
  %this1 = load ptr, ptr %this.addr, align 8
  %index = getelementptr inbounds %"class.icu_75::ParsePosition", ptr %this1, i32 0, i32 1
  %0 = load i32, ptr %index, align 8
  ret i32 %0
}

; Function Attrs: mustprogress nounwind uwtable
define linkonce_odr noundef signext i8 @_ZNK6icu_759NFRuleSet17isFractionRuleSetEv(ptr noundef nonnull align 8 dereferenceable(163) %this) #0 comdat align 2 {
entry:
  %this.addr = alloca ptr, align 8
  store ptr %this, ptr %this.addr, align 8
  %this1 = load ptr, ptr %this.addr, align 8
  %fIsFractionRuleSet = getelementptr inbounds %"class.icu_75::NFRuleSet", ptr %this1, i32 0, i32 6
  %0 = load i8, ptr %fIsFractionRuleSet, align 8
  ret i8 %0
}

; Function Attrs: mustprogress uwtable
define noundef signext i8 @_ZNK6icu_7514NFSubstitution7doParseERKNS_13UnicodeStringERNS_13ParsePositionEddajRNS_11FormattableE(ptr noundef nonnull align 8 dereferenceable(32) %this, ptr noundef nonnull align 8 dereferenceable(64) %text, ptr noundef nonnull align 8 dereferenceable(16) %parsePosition, double noundef %baseValue, double noundef %upperBound, i8 noundef signext %lenientParse, i32 noundef %nonNumericalExecutedRuleMask, ptr noundef nonnull align 8 dereferenceable(112) %result) unnamed_addr #2 align 2 {
entry:
  %retval = alloca i8, align 1
  %this.addr = alloca ptr, align 8
  %text.addr = alloca ptr, align 8
  %parsePosition.addr = alloca ptr, align 8
  %baseValue.addr = alloca double, align 8
  %upperBound.addr = alloca double, align 8
  %lenientParse.addr = alloca i8, align 1
  %nonNumericalExecutedRuleMask.addr = alloca i32, align 4
  %result.addr = alloca ptr, align 8
  %status = alloca i32, align 4
  %fmt = alloca ptr, align 8
  %status30 = alloca i32, align 4
  %tempResult = alloca double, align 8
  store ptr %this, ptr %this.addr, align 8
  store ptr %text, ptr %text.addr, align 8
  store ptr %parsePosition, ptr %parsePosition.addr, align 8
  store double %baseValue, ptr %baseValue.addr, align 8
  store double %upperBound, ptr %upperBound.addr, align 8
  store i8 %lenientParse, ptr %lenientParse.addr, align 1
  store i32 %nonNumericalExecutedRuleMask, ptr %nonNumericalExecutedRuleMask.addr, align 4
  store ptr %result, ptr %result.addr, align 8
  %this1 = load ptr, ptr %this.addr, align 8
  %0 = load double, ptr %upperBound.addr, align 8
  %vtable = load ptr, ptr %this1, align 8
  %vfn = getelementptr inbounds ptr, ptr %vtable, i64 12
  %1 = load ptr, ptr %vfn, align 8
  %call = call noundef double %1(ptr noundef nonnull align 8 dereferenceable(32) %this1, double noundef %0)
  store double %call, ptr %upperBound.addr, align 8
  %ruleSet = getelementptr inbounds %"class.icu_75::NFSubstitution", ptr %this1, i32 0, i32 2
  %2 = load ptr, ptr %ruleSet, align 8
  %cmp = icmp ne ptr %2, null
  br i1 %cmp, label %if.then, label %if.else

if.then:                                          ; preds = %entry
  %ruleSet2 = getelementptr inbounds %"class.icu_75::NFSubstitution", ptr %this1, i32 0, i32 2
  %3 = load ptr, ptr %ruleSet2, align 8
  %4 = load ptr, ptr %text.addr, align 8
  %5 = load ptr, ptr %parsePosition.addr, align 8
  %6 = load double, ptr %upperBound.addr, align 8
  %7 = load i32, ptr %nonNumericalExecutedRuleMask.addr, align 4
  %8 = load ptr, ptr %result.addr, align 8
  %call3 = call noundef signext i8 @_ZNK6icu_759NFRuleSet5parseERKNS_13UnicodeStringERNS_13ParsePositionEdjRNS_11FormattableE(ptr noundef nonnull align 8 dereferenceable(163) %3, ptr noundef nonnull align 8 dereferenceable(64) %4, ptr noundef nonnull align 8 dereferenceable(16) %5, double noundef %6, i32 noundef %7, ptr noundef nonnull align 8 dereferenceable(112) %8)
  %9 = load i8, ptr %lenientParse.addr, align 1
  %tobool = icmp ne i8 %9, 0
  br i1 %tobool, label %land.lhs.true, label %if.end19

land.lhs.true:                                    ; preds = %if.then
  %ruleSet4 = getelementptr inbounds %"class.icu_75::NFSubstitution", ptr %this1, i32 0, i32 2
  %10 = load ptr, ptr %ruleSet4, align 8
  %call5 = call noundef signext i8 @_ZNK6icu_759NFRuleSet17isFractionRuleSetEv(ptr noundef nonnull align 8 dereferenceable(163) %10)
  %tobool6 = icmp ne i8 %call5, 0
  br i1 %tobool6, label %if.end19, label %land.lhs.true7

land.lhs.true7:                                   ; preds = %land.lhs.true
  %11 = load ptr, ptr %parsePosition.addr, align 8
  %call8 = call noundef i32 @_ZNK6icu_7513ParsePosition8getIndexEv(ptr noundef nonnull align 8 dereferenceable(16) %11)
  %cmp9 = icmp eq i32 %call8, 0
  br i1 %cmp9, label %if.then10, label %if.end19

if.then10:                                        ; preds = %land.lhs.true7
  store i32 0, ptr %status, align 4
  %call11 = call noundef ptr @_ZN6icu_7512NumberFormat14createInstanceER10UErrorCode(ptr noundef nonnull align 4 dereferenceable(4) %status)
  store ptr %call11, ptr %fmt, align 8
  %12 = load i32, ptr %status, align 4
  %call12 = call noundef signext i8 @_ZL9U_SUCCESS10UErrorCode(i32 noundef %12)
  %tobool13 = icmp ne i8 %call12, 0
  br i1 %tobool13, label %if.then14, label %if.end

if.then14:                                        ; preds = %if.then10
  %13 = load ptr, ptr %fmt, align 8
  %14 = load ptr, ptr %text.addr, align 8
  %15 = load ptr, ptr %result.addr, align 8
  %16 = load ptr, ptr %parsePosition.addr, align 8
  %vtable15 = load ptr, ptr %13, align 8
  %vfn16 = getelementptr inbounds ptr, ptr %vtable15, i64 20
  %17 = load ptr, ptr %vfn16, align 8
  call void %17(ptr noundef nonnull align 8 dereferenceable(356) %13, ptr noundef nonnull align 8 dereferenceable(64) %14, ptr noundef nonnull align 8 dereferenceable(112) %15, ptr noundef nonnull align 8 dereferenceable(16) %16)
  br label %if.end

if.end:                                           ; preds = %if.then14, %if.then10
  %18 = load ptr, ptr %fmt, align 8
  %isnull = icmp eq ptr %18, null
  br i1 %isnull, label %delete.end, label %delete.notnull

delete.notnull:                                   ; preds = %if.end
  %vtable17 = load ptr, ptr %18, align 8
  %vfn18 = getelementptr inbounds ptr, ptr %vtable17, i64 1
  %19 = load ptr, ptr %vfn18, align 8
  call void %19(ptr noundef nonnull align 8 dereferenceable(356) %18) #6
  br label %delete.end

delete.end:                                       ; preds = %delete.notnull, %if.end
  br label %if.end19

if.end19:                                         ; preds = %delete.end, %land.lhs.true7, %land.lhs.true, %if.then
  br label %if.end26

if.else:                                          ; preds = %entry
  %numberFormat = getelementptr inbounds %"class.icu_75::NFSubstitution", ptr %this1, i32 0, i32 3
  %20 = load ptr, ptr %numberFormat, align 8
  %cmp20 = icmp ne ptr %20, null
  br i1 %cmp20, label %if.then21, label %if.end25

if.then21:                                        ; preds = %if.else
  %numberFormat22 = getelementptr inbounds %"class.icu_75::NFSubstitution", ptr %this1, i32 0, i32 3
  %21 = load ptr, ptr %numberFormat22, align 8
  %22 = load ptr, ptr %text.addr, align 8
  %23 = load ptr, ptr %result.addr, align 8
  %24 = load ptr, ptr %parsePosition.addr, align 8
  %vtable23 = load ptr, ptr %21, align 8
  %vfn24 = getelementptr inbounds ptr, ptr %vtable23, i64 20
  %25 = load ptr, ptr %vfn24, align 8
  call void %25(ptr noundef nonnull align 8 dereferenceable(368) %21, ptr noundef nonnull align 8 dereferenceable(64) %22, ptr noundef nonnull align 8 dereferenceable(112) %23, ptr noundef nonnull align 8 dereferenceable(16) %24)
  br label %if.end25

if.end25:                                         ; preds = %if.then21, %if.else
  br label %if.end26

if.end26:                                         ; preds = %if.end25, %if.end19
  %26 = load ptr, ptr %parsePosition.addr, align 8
  %call27 = call noundef i32 @_ZNK6icu_7513ParsePosition8getIndexEv(ptr noundef nonnull align 8 dereferenceable(16) %26)
  %cmp28 = icmp ne i32 %call27, 0
  br i1 %cmp28, label %if.then29, label %if.else35

if.then29:                                        ; preds = %if.end26
  store i32 0, ptr %status30, align 4
  %27 = load ptr, ptr %result.addr, align 8
  %call31 = call noundef double @_ZNK6icu_7511Formattable9getDoubleER10UErrorCode(ptr noundef nonnull align 8 dereferenceable(112) %27, ptr noundef nonnull align 4 dereferenceable(4) %status30)
  store double %call31, ptr %tempResult, align 8
  %28 = load double, ptr %tempResult, align 8
  %29 = load double, ptr %baseValue.addr, align 8
  %vtable32 = load ptr, ptr %this1, align 8
  %vfn33 = getelementptr inbounds ptr, ptr %vtable32, i64 11
  %30 = load ptr, ptr %vfn33, align 8
  %call34 = call noundef double %30(ptr noundef nonnull align 8 dereferenceable(32) %this1, double noundef %28, double noundef %29)
  store double %call34, ptr %tempResult, align 8
  %31 = load ptr, ptr %result.addr, align 8
  %32 = load double, ptr %tempResult, align 8
  call void @_ZN6icu_7511Formattable9setDoubleEd(ptr noundef nonnull align 8 dereferenceable(112) %31, double noundef %32)
  store i8 1, ptr %retval, align 1
  br label %return

if.else35:                                        ; preds = %if.end26
  %33 = load ptr, ptr %result.addr, align 8
  call void @_ZN6icu_7511Formattable7setLongEi(ptr noundef nonnull align 8 dereferenceable(112) %33, i32 noundef 0)
  store i8 0, ptr %retval, align 1
  br label %return

return:                                           ; preds = %if.else35, %if.then29
  %34 = load i8, ptr %retval, align 1
  ret i8 %34
}