; Function Attrs: mustprogress uwtable
define noundef signext i8 @_ZNK6icu_7514NFSubstitution7doParseERKNS_13UnicodeStringERNS_13ParsePositionEddajRNS_11FormattableE(ptr noundef nonnull align 8 dereferenceable(32) %this, ptr noundef nonnull align 8 dereferenceable(64) %text, ptr noundef nonnull align 8 dereferenceable(16) %parsePosition, double noundef %baseValue, double noundef %upperBound, i8 noundef signext %lenientParse, i32 noundef %nonNumericalExecutedRuleMask, ptr noundef nonnull align 8 dereferenceable(112) %result) unnamed_addr #2 align 2 {
entry:
  %status = alloca i32, align 4
  %status30 = alloca i32, align 4
  %vtable = load ptr, ptr %this, align 8
  %vfn = getelementptr inbounds i8, ptr %vtable, i64 96
  %0 = load ptr, ptr %vfn, align 8
  %call = tail call noundef double %0(ptr noundef nonnull align 8 dereferenceable(32) %this, double noundef %upperBound)
  %ruleSet = getelementptr inbounds i8, ptr %this, i64 16
  %1 = load ptr, ptr %ruleSet, align 8
  %cmp.not = icmp eq ptr %1, null
  br i1 %cmp.not, label %if.else, label %if.then

if.then:                                          ; preds = %entry
  %call3 = tail call noundef signext i8 @_ZNK6icu_759NFRuleSet5parseERKNS_13UnicodeStringERNS_13ParsePositionEdjRNS_11FormattableE(ptr noundef nonnull align 8 dereferenceable(163) %1, ptr noundef nonnull align 8 dereferenceable(64) %text, ptr noundef nonnull align 8 dereferenceable(16) %parsePosition, double noundef %call, i32 noundef %nonNumericalExecutedRuleMask, ptr noundef nonnull align 8 dereferenceable(112) %result)
  %tobool.not = icmp eq i8 %lenientParse, 0
  br i1 %tobool.not, label %if.end26, label %land.lhs.true

land.lhs.true:                                    ; preds = %if.then
  %2 = load ptr, ptr %ruleSet, align 8
  %fIsFractionRuleSet.i = getelementptr inbounds i8, ptr %2, i64 160
  %3 = load i8, ptr %fIsFractionRuleSet.i, align 8
  %tobool6.not = icmp eq i8 %3, 0
  %index.i = getelementptr inbounds i8, ptr %parsePosition, i64 8
  %4 = load i32, ptr %index.i, align 8
  %cmp9 = icmp eq i32 %4, 0
  %or.cond = select i1 %tobool6.not, i1 %cmp9, i1 false
  br i1 %or.cond, label %if.then10, label %if.end26

if.then10:                                        ; preds = %land.lhs.true
  store i32 0, ptr %status, align 4
  %call11 = call noundef ptr @_ZN6icu_7512NumberFormat14createInstanceER10UErrorCode(ptr noundef nonnull align 4 dereferenceable(4) %status)
  %5 = load i32, ptr %status, align 4
  %cmp.i = icmp sgt i32 %5, 0
  br i1 %cmp.i, label %if.end, label %if.end.thread

if.end.thread:                                    ; preds = %if.then10
  %vtable15 = load ptr, ptr %call11, align 8
  %vfn16 = getelementptr inbounds i8, ptr %vtable15, i64 160
  %6 = load ptr, ptr %vfn16, align 8
  call void %6(ptr noundef nonnull align 8 dereferenceable(356) %call11, ptr noundef nonnull align 8 dereferenceable(64) %text, ptr noundef nonnull align 8 dereferenceable(112) %result, ptr noundef nonnull align 8 dereferenceable(16) %parsePosition)
  br label %delete.notnull

if.end:                                           ; preds = %if.then10
  %isnull = icmp eq ptr %call11, null
  br i1 %isnull, label %if.end26, label %delete.notnull

delete.notnull:                                   ; preds = %if.end.thread, %if.end
  %vtable17 = load ptr, ptr %call11, align 8
  %vfn18 = getelementptr inbounds i8, ptr %vtable17, i64 8
  %7 = load ptr, ptr %vfn18, align 8
  call void %7(ptr noundef nonnull align 8 dereferenceable(356) %call11) #11
  br label %if.end26

if.else:                                          ; preds = %entry
  %numberFormat = getelementptr inbounds i8, ptr %this, i64 24
  %8 = load ptr, ptr %numberFormat, align 8
  %cmp20.not = icmp eq ptr %8, null
  br i1 %cmp20.not, label %if.end26, label %if.then21

if.then21:                                        ; preds = %if.else
  %vtable23 = load ptr, ptr %8, align 8
  %vfn24 = getelementptr inbounds i8, ptr %vtable23, i64 160
  %9 = load ptr, ptr %vfn24, align 8
  tail call void %9(ptr noundef nonnull align 8 dereferenceable(368) %8, ptr noundef nonnull align 8 dereferenceable(64) %text, ptr noundef nonnull align 8 dereferenceable(112) %result, ptr noundef nonnull align 8 dereferenceable(16) %parsePosition)
  br label %if.end26

if.end26:                                         ; preds = %if.else, %if.then21, %if.then, %land.lhs.true, %delete.notnull, %if.end
  %index.i16 = getelementptr inbounds i8, ptr %parsePosition, i64 8
  %10 = load i32, ptr %index.i16, align 8
  %cmp28.not = icmp eq i32 %10, 0
  br i1 %cmp28.not, label %if.else35, label %if.then29

if.then29:                                        ; preds = %if.end26
  store i32 0, ptr %status30, align 4
  %call31 = call noundef double @_ZNK6icu_7511Formattable9getDoubleER10UErrorCode(ptr noundef nonnull align 8 dereferenceable(112) %result, ptr noundef nonnull align 4 dereferenceable(4) %status30)
  %vtable32 = load ptr, ptr %this, align 8
  %vfn33 = getelementptr inbounds i8, ptr %vtable32, i64 88
  %11 = load ptr, ptr %vfn33, align 8
  %call34 = call noundef double %11(ptr noundef nonnull align 8 dereferenceable(32) %this, double noundef %call31, double noundef %baseValue)
  call void @_ZN6icu_7511Formattable9setDoubleEd(ptr noundef nonnull align 8 dereferenceable(112) %result, double noundef %call34)
  br label %return

if.else35:                                        ; preds = %if.end26
  call void @_ZN6icu_7511Formattable7setLongEi(ptr noundef nonnull align 8 dereferenceable(112) %result, i32 noundef 0)
  br label %return

return:                                           ; preds = %if.else35, %if.then29
  %retval.0 = phi i8 [ 1, %if.then29 ], [ 0, %if.else35 ]
  ret i8 %retval.0
}